Certificate:
    Data:
        Version: 3 (0x2)
        Serial Number: 1572441855 (0x5db98eff)
    Signature Algorithm: sha256WithRSAEncryption
        Issuer: C=US, O=HyTrust Inc., CN=HyTrust KeyControl Certificate Authority
        Validity
            Not Before: Jun  1 00:00:00 2011 GMT
            Not After : Dec 31 23:59:59 2049 GMT
        Subject: C=US, O=HyTrust Inc., CN=HyTrust KeyControl Certificate Authority
        Subject Public Key Info:
            Public Key Algorithm: rsaEncryption
                Public-Key: (2048 bit)
                Modulus:
                    00:ce:97:5b:a1:30:b1:26:00:31:8a:aa:bd:a2:0c:
                    19:1b:24:83:05:20:7a:63:ac:6c:ab:0f:80:24:47:
                    2b:03:94:86:25:a4:10:51:fb:b6:e8:5e:33:db:e2:
                    91:98:f3:2a:b1:78:ef:83:a5:f2:e1:79:36:44:06:
                    3b:01:cd:1a:47:c1:74:89:2b:d3:3c:8d:f1:fb:c2:
                    90:88:fe:18:d9:81:7b:2a:e4:67:61:87:17:23:38:
                    29:5a:66:eb:d0:01:a6:da:c3:a5:7f:f5:d1:9e:f5:
                    04:dc:1c:4a:62:2e:e2:5b:5f:22:56:61:fe:ba:66:
                    c2:ad:a9:51:43:9c:28:e4:8f:fa:05:12:fa:0d:a5:
                    35:e3:2f:99:e8:a4:98:09:f9:e7:c8:e0:6c:a9:bd:
                    e9:59:b0:83:07:09:10:10:5b:aa:b5:72:3b:40:e6:
                    38:f4:e3:f8:9a:55:8e:5e:ae:5c:3e:c3:08:34:13:
                    9c:19:fc:65:07:ac:3f:98:ae:a0:d2:f8:1d:4c:bf:
                    cb:93:a7:e4:d6:37:84:0a:0c:3a:1f:86:f2:35:0c:
                    2e:66:b0:9b:43:8e:bc:e4:b9:b0:bf:33:67:c2:97:
                    df:47:6c:65:cc:55:38:70:a9:39:27:60:e1:74:14:
                    34:e9:a6:a0:b6:11:de:61:94:9a:6b:83:f1:84:8d:
                    27:9f
                Exponent: 65537 (0x10001)
        X509v3 extensions:
            X509v3 Subject Key Identifier:
                66:AD:DE:45:50:5D:54:68:1F:B0:56:00:65:FB:D1:F2:97:57:EF:6E
            X509v3 Authority Key Identifier:
                keyid:66:AD:DE:45:50:5D:54:68:1F:B0:56:00:65:FB:D1:F2:97:57:EF:6E
                DirName:/C=US/O=HyTrust Inc./CN=HyTrust KeyControl Certificate Authority
                serial:5D:B9:8E:FF

            X509v3 Basic Constraints:
                CA:TRUE
    Signature Algorithm: sha256WithRSAEncryption
         ab:a9:19:07:07:f0:b9:74:e1:a8:49:db:bd:c1:21:fc:38:38:
         79:dd:2f:3e:59:be:96:79:1d:18:d4:5e:1f:31:47:fb:bd:d4:
         96:d7:be:87:7e:0d:e4:9e:7c:7a:36:c9:9a:5f:e5:63:38:33:
         68:cf:b1:92:d0:b8:81:1a:6f:23:27:d8:71:50:41:63:ce:5f:
         20:69:72:4c:cd:07:ab:35:58:fe:da:d5:26:1e:44:f4:97:e3:
         ff:6c:80:db:31:17:13:52:6c:fb:68:34:71:11:af:b6:84:3b:
         b1:5c:d3:67:25:e1:5a:31:a6:68:83:ec:c4:3e:e8:f6:08:60:
         d0:2a:26:9e:fe:07:08:57:6e:9a:dd:6e:ba:a2:10:ab:2e:fd:
         cd:52:a3:2f:e0:59:6d:33:39:05:ed:fd:ed:ac:b0:e7:98:5e:
         f2:51:00:12:df:4c:8a:0c:e2:11:df:43:65:d0:f3:a1:85:59:
         6d:d4:bb:a0:97:f7:c7:40:63:b3:24:cf:ec:5e:9e:42:1b:cc:
         e2:36:43:d1:83:79:11:48:3b:3d:db:c3:2a:03:4f:cd:53:2d:
         07:8d:0e:28:4a:a9:58:e0:27:c3:47:f6:ab:00:cd:fc:31:ed:
         99:b9:57:2e:2d:5a:79:5f:48:14:39:8b:0e:da:1c:a0:d6:4e:
         d4:81:83:49
-----BEGIN CERTIFICATE-----
MIID4jCCAsqgAwIBAgIEXbmO/zANBgkqhkiG9w0BAQsFADBXMQswCQYDVQQGEwJV
UzEVMBMGA1UEChMMSHlUcnVzdCBJbmMuMTEwLwYDVQQDEyhIeVRydXN0IEtleUNv
bnRyb2wgQ2VydGlmaWNhdGUgQXV0aG9yaXR5MB4XDTExMDYwMTAwMDAwMFoXDTQ5
MTIzMTIzNTk1OVowVzELMAkGA1UEBhMCVVMxFTATBgNVBAoTDEh5VHJ1c3QgSW5j
LjExMC8GA1UEAxMoSHlUcnVzdCBLZXlDb250cm9sIENlcnRpZmljYXRlIEF1dGhv
cml0eTCCASIwDQYJKoZIhvcNAQEBBQADggEPADCCAQoCggEBAM6XW6EwsSYAMYqq
vaIMGRskgwUgemOsbKsPgCRHKwOUhiWkEFH7tuheM9vikZjzKrF474Ol8uF5NkQG
OwHNGkfBdIkr0zyN8fvCkIj+GNmBeyrkZ2GHFyM4KVpm69ABptrDpX/10Z71BNwc
SmIu4ltfIlZh/rpmwq2pUUOcKOSP+gUS+g2lNeMvmeikmAn558jgbKm96VmwgwcJ
EBBbqrVyO0DmOPTj+JpVjl6uXD7DCDQTnBn8ZQesP5iuoNL4HUy/y5On5NY3hAoM
Oh+G8jUMLmawm0OOvOS5sL8zZ8KX30dsZcxVOHCpOSdg4XQUNOmmoLYR3mGUmmuD
8YSNJ58CAwEAAaOBtTCBsjAdBgNVHQ4EFgQUZq3eRVBdVGgfsFYAZfvR8pdX724w
gYIGA1UdIwR7MHmAFGat3kVQXVRoH7BWAGX70fKXV+9uoVukWTBXMQswCQYDVQQG
EwJVUzEVMBMGA1UEChMMSHlUcnVzdCBJbmMuMTEwLwYDVQQDEyhIeVRydXN0IEtl
eUNvbnRyb2wgQ2VydGlmaWNhdGUgQXV0aG9yaXR5ggRduY7/MAwGA1UdEwQFMAMB
Af8wDQYJKoZIhvcNAQELBQADggEBAKupGQcH8Ll04ahJ273BIfw4OHndLz5ZvpZ5
HRjUXh8xR/u91JbXvod+DeSefHo2yZpf5WM4M2jPsZLQuIEabyMn2HFQQWPOXyBp
ckzNB6s1WP7a1SYeRPSX4/9sgNsxFxNSbPtoNHERr7aEO7Fc02cl4VoxpmiD7MQ+
6PYIYNAqJp7+BwhXbprdbrqiEKsu/c1Soy/gWW0zOQXt/e2ssOeYXvJRABLfTIoM
4hHfQ2XQ86GFWW3Uu6CX98dAY7Mkz+xenkIbzOI2Q9GDeRFIOz3bwyoDT81TLQeN
DihKqVjgJ8NH9qsAzfwx7Zm5Vy4tWnlfSBQ5iw7aHKDWTtSBg0k=
-----END CERTIFICATE-----
